; Function Attrs: mustprogress nofree norecurse nosync nounwind willreturn memory(write, argmem: readwrite, inaccessiblemem: none) uwtable
define void @ff_amf_write_number(ptr noundef captures(none) %0, double noundef %1) local_unnamed_addr #0 {
  %3 = load ptr, ptr %0, align 8, !tbaa !4
  store i8 0, ptr %3, align 1, !tbaa !9
  %4 = load ptr, ptr %0, align 8, !tbaa !4
  %5 = getelementptr inbounds nuw i8, ptr %4, i64 1
  store ptr %5, ptr %0, align 8, !tbaa !4
  %6 = bitcast double %1 to i64
  %7 = tail call noundef i64 @llvm.bswap.i64(i64 %6)
  store i64 %7, ptr %5, align 1, !tbaa !9
  %8 = load ptr, ptr %0, align 8, !tbaa !4
  %9 = getelementptr inbounds nuw i8, ptr %8, i64 8
  store ptr %9, ptr %0, align 8, !tbaa !4
  ret void
}